Certificate:
    Data:
        Version: 3 (0x2)
        Serial Number: 305419897 (0x12345679)
        Signature Algorithm: sha256WithRSAEncryption
        Issuer: CN=SRK1_sha256_2048_65537_v3_ca
        Validity
            Not Before: Apr 27 09:23:40 2023 GMT
            Not After : Apr 22 09:23:40 2043 GMT
        Subject: CN=CSF1_1_sha256_2048_65537_v3_usr
        Subject Public Key Info:
            Public Key Algorithm: rsaEncryption
                Public-Key: (2048 bit)
                Modulus:
                    00:c5:83:b7:e7:09:01:ba:89:69:6f:fb:f9:4b:e4:
                    e1:4b:42:b9:9b:38:d1:53:99:f0:c4:ea:c7:84:51:
                    a0:44:cf:10:a8:ef:06:fc:7f:34:65:c0:2e:03:3c:
                    99:f1:5c:56:e3:79:2c:a1:95:15:54:8f:27:90:be:
                    18:7f:5a:7f:fb:c8:2d:30:a8:68:cf:b0:52:a3:34:
                    3b:84:8f:b2:18:32:7b:22:b2:ca:1e:e6:ce:a0:77:
                    07:2e:3a:2c:e3:04:12:e4:ae:be:04:52:cf:9c:72:
                    a3:7d:66:6e:94:ce:36:ff:7d:84:9d:0f:23:36:89:
                    9c:bc:60:b4:54:64:72:47:6c:84:b9:c3:f8:28:b7:
                    71:8d:88:6e:75:ab:be:d5:5b:b5:67:07:2b:a7:b5:
                    08:da:a3:f9:3c:2a:a7:3f:76:4a:11:c8:16:a2:ec:
                    f1:93:aa:fa:0f:02:99:47:cb:f1:3e:fe:df:7d:68:
                    ee:92:70:d6:c7:dd:c3:a1:8b:d6:58:f5:f1:2d:ed:
                    b4:7d:74:e4:11:0d:36:a4:90:24:c0:1f:ab:cd:17:
                    8d:c9:62:8f:20:3d:6f:17:f7:c2:86:d3:58:f5:1d:
                    ce:b6:2f:e8:91:26:9e:03:b5:bb:7c:a3:63:b8:b4:
                    a9:51:9a:d8:ee:b3:15:b1:21:5d:23:0d:7a:bd:ee:
                    ed:af
                Exponent: 65537 (0x10001)
        X509v3 extensions:
            X509v3 Basic Constraints: 
                CA:FALSE
            Netscape Comment: 
                OpenSSL Generated Certificate
            X509v3 Subject Key Identifier: 
                93:50:A0:EF:9D:D5:56:62:08:F1:2A:27:89:8D:AA:47:95:08:99:D8
            X509v3 Authority Key Identifier: 
                83:83:95:35:A2:84:BD:16:02:B0:44:94:E8:78:2B:0D:C3:96:D5:34
    Signature Algorithm: sha256WithRSAEncryption
    Signature Value:
        68:19:4f:39:25:b7:ff:e4:85:76:74:cf:7a:5d:0b:fd:4c:69:
        72:47:90:18:4b:03:08:01:f1:89:69:0d:3b:3e:54:64:c8:18:
        02:72:39:71:31:02:4e:01:2a:18:bc:de:c5:2f:c4:58:99:a1:
        7d:2f:50:e1:38:ca:ab:9a:b2:5d:b6:36:05:ce:eb:c0:3e:1f:
        20:f1:0e:35:e6:cb:4e:2a:ae:24:1d:48:1f:a9:50:4c:bd:80:
        ba:94:fe:ee:1e:90:47:0f:72:3f:71:f8:97:ee:f4:ca:d7:ba:
        40:5f:ce:c5:a6:ab:df:0f:5a:87:0b:b3:b9:76:81:be:d1:78:
        bf:49:9f:05:73:40:3c:5e:98:8b:01:9e:ef:95:b0:c1:96:0b:
        d6:37:65:f0:dc:d7:39:53:19:a9:3c:c3:f9:4a:09:f8:a3:af:
        84:0c:42:96:f8:05:36:5c:a8:2d:11:ee:d6:6e:d1:e4:82:45:
        98:ba:c2:e5:e4:78:9a:7c:14:a1:9c:3b:30:68:42:b4:b9:f6:
        6f:70:bb:6a:2a:11:7e:64:18:10:8e:16:50:b1:a8:28:d7:51:
        20:3f:b4:10:d1:1c:8a:29:68:0d:50:27:6c:be:8a:d8:c7:dc:
        4b:22:0a:40:e2:13:cc:e0:56:49:5b:6d:ad:58:e3:c7:02:4d:
        6b:d2:87:aa
-----BEGIN CERTIFICATE-----
MIIDSjCCAjKgAwIBAgIEEjRWeTANBgkqhkiG9w0BAQsFADAnMSUwIwYDVQQDDBxT
UksxX3NoYTI1Nl8yMDQ4XzY1NTM3X3YzX2NhMB4XDTIzMDQyNzA5MjM0MFoXDTQz
MDQyMjA5MjM0MFowKjEoMCYGA1UEAwwfQ1NGMV8xX3NoYTI1Nl8yMDQ4XzY1NTM3
X3YzX3VzcjCCASIwDQYJKoZIhvcNAQEBBQADggEPADCCAQoCggEBAMWDt+cJAbqJ
aW/7+Uvk4UtCuZs40VOZ8MTqx4RRoETPEKjvBvx/NGXALgM8mfFcVuN5LKGVFVSP
J5C+GH9af/vILTCoaM+wUqM0O4SPshgyeyKyyh7mzqB3By46LOMEEuSuvgRSz5xy
o31mbpTONv99hJ0PIzaJnLxgtFRkckdshLnD+Ci3cY2IbnWrvtVbtWcHK6e1CNqj
+Twqpz92ShHIFqLs8ZOq+g8CmUfL8T7+331o7pJw1sfdw6GL1lj18S3ttH105BEN
NqSQJMAfq80XjclijyA9bxf3wobTWPUdzrYv6JEmngO1u3yjY7i0qVGa2O6zFbEh
XSMNer3u7a8CAwEAAaN7MHkwCQYDVR0TBAIwADAsBglghkgBhvhCAQ0EHxYdT3Bl
blNTTCBHZW5lcmF0ZWQgQ2VydGlmaWNhdGUwHQYDVR0OBBYEFJNQoO+d1VZiCPEq
J4mNqkeVCJnYMB8GA1UdIwQYMBaAFIODlTWihL0WArBElOh4Kw3DltU0MA0GCSqG
SIb3DQEBCwUAA4IBAQBoGU85Jbf/5IV2dM96XQv9TGlyR5AYSwMIAfGJaQ07PlRk
yBgCcjlxMQJOASoYvN7FL8RYmaF9L1DhOMqrmrJdtjYFzuvAPh8g8Q415stOKq4k
HUgfqVBMvYC6lP7uHpBHD3I/cfiX7vTK17pAX87FpqvfD1qHC7O5doG+0Xi/SZ8F
c0A8XpiLAZ7vlbDBlgvWN2Xw3Nc5UxmpPMP5Sgn4o6+EDEKW+AU2XKgtEe7WbtHk
gkWYusLl5HiafBShnDswaEK0ufZvcLtqKhF+ZBgQjhZQsago11EgP7QQ0RyKKWgN
UCdsvorYx9xLIgpA4hPM4FZJW22tWOPHAk1r0oeq
-----END CERTIFICATE-----
