Certificate:
    Data:
        Version: 3 (0x2)
        Serial Number: 305419898 (0x1234567a)
        Signature Algorithm: sha256WithRSAEncryption
        Issuer: CN=SRK1_sha256_2048_65537_v3_ca
        Validity
            Not Before: Apr 27 09:23:40 2023 GMT
            Not After : Apr 22 09:23:40 2043 GMT
        Subject: CN=IMG1_1_sha256_2048_65537_v3_usr
        Subject Public Key Info:
            Public Key Algorithm: rsaEncryption
                Public-Key: (2048 bit)
                Modulus:
                    00:e9:00:61:ca:8f:d8:fd:bd:31:43:6f:0e:e1:bb:
                    fc:d0:1f:33:d7:d1:7a:07:85:be:90:be:d9:22:f2:
                    1f:04:dd:e7:1b:e0:da:a0:42:d1:1d:76:23:ae:cf:
                    f2:dd:a3:9e:ef:36:07:25:e9:e7:bd:7d:d1:b4:f8:
                    36:35:f9:ed:69:cc:71:ef:9b:20:ce:0c:2e:03:14:
                    71:7e:36:16:9a:fd:e8:65:39:7c:8f:7f:bf:56:65:
                    c0:d1:5b:a2:f4:34:9b:23:c1:14:8c:f9:43:77:46:
                    2e:24:42:f9:2d:a9:54:74:ff:c6:77:87:99:63:68:
                    75:94:8b:b4:8b:b3:9d:95:0b:77:b9:96:85:a5:7f:
                    6f:2a:78:ea:37:d3:0d:f5:18:dc:87:d5:95:00:a2:
                    a0:0f:9e:62:34:aa:6a:91:ce:3c:90:d6:eb:a6:da:
                    84:6b:cd:52:ca:7f:92:2b:89:4e:b9:3a:9a:59:eb:
                    83:e2:05:01:ee:b0:96:d9:35:47:d3:2e:60:4d:3e:
                    cb:13:bc:a1:e5:17:81:03:0c:4d:f4:ef:88:13:47:
                    d2:a2:8f:29:fd:07:bd:3b:18:40:be:a5:bd:8a:94:
                    b8:a6:17:86:6e:de:b4:05:45:6b:48:fb:f8:8d:8c:
                    fb:f0:87:53:ca:a3:4d:7c:4c:64:3e:6e:9d:b5:32:
                    62:e9
                Exponent: 65537 (0x10001)
        X509v3 extensions:
            X509v3 Basic Constraints: 
                CA:FALSE
            Netscape Comment: 
                OpenSSL Generated Certificate
            X509v3 Subject Key Identifier: 
                F4:71:AD:A9:8B:B5:BB:F1:DC:C9:6E:23:2B:63:B6:E2:82:78:4D:7D
            X509v3 Authority Key Identifier: 
                83:83:95:35:A2:84:BD:16:02:B0:44:94:E8:78:2B:0D:C3:96:D5:34
    Signature Algorithm: sha256WithRSAEncryption
    Signature Value:
        9a:82:34:26:93:b6:af:a6:67:cf:21:d8:73:ee:54:63:b3:9d:
        a2:ee:7a:8d:68:c1:73:85:6f:e7:2c:7f:01:9c:58:07:89:6e:
        34:ef:8a:12:f1:c8:80:cb:d4:a8:9c:fb:8f:88:47:df:c2:73:
        89:03:27:b6:89:52:f6:5f:cd:46:40:6b:10:49:f8:4d:f8:e5:
        63:44:cd:ff:22:47:0e:49:1a:1e:45:7d:86:ab:18:e3:03:87:
        97:34:6f:51:d2:a3:4d:6b:77:a8:22:51:ec:52:fb:c4:68:a5:
        70:c9:c1:0d:a9:07:15:e4:f1:e7:98:50:9d:9e:b7:f3:1a:17:
        e3:63:c3:f7:91:b6:fd:87:f8:39:06:96:be:f1:b6:67:b5:eb:
        76:12:17:98:57:66:ef:c5:97:68:ec:f9:40:b3:35:3b:0b:fe:
        b7:62:42:2f:8c:c1:d9:3b:be:bf:f2:04:64:36:9b:df:d1:79:
        5e:08:8b:c4:b4:7d:5a:4b:51:06:8a:f1:f0:76:d2:d2:69:8c:
        12:c7:7d:0c:a8:05:33:00:97:cf:a6:86:88:1f:5f:27:2e:bd:
        af:58:0b:8c:85:49:5d:15:b2:f6:e3:48:76:be:c0:97:0e:bd:
        81:a9:30:08:2a:31:a1:4b:17:52:71:c4:a6:23:b3:c7:16:7b:
        fd:fe:fb:bb
-----BEGIN CERTIFICATE-----
MIIDSjCCAjKgAwIBAgIEEjRWejANBgkqhkiG9w0BAQsFADAnMSUwIwYDVQQDDBxT
UksxX3NoYTI1Nl8yMDQ4XzY1NTM3X3YzX2NhMB4XDTIzMDQyNzA5MjM0MFoXDTQz
MDQyMjA5MjM0MFowKjEoMCYGA1UEAwwfSU1HMV8xX3NoYTI1Nl8yMDQ4XzY1NTM3
X3YzX3VzcjCCASIwDQYJKoZIhvcNAQEBBQADggEPADCCAQoCggEBAOkAYcqP2P29
MUNvDuG7/NAfM9fRegeFvpC+2SLyHwTd5xvg2qBC0R12I67P8t2jnu82ByXp5719
0bT4NjX57WnMce+bIM4MLgMUcX42Fpr96GU5fI9/v1ZlwNFbovQ0myPBFIz5Q3dG
LiRC+S2pVHT/xneHmWNodZSLtIuznZULd7mWhaV/byp46jfTDfUY3IfVlQCioA+e
YjSqapHOPJDW66bahGvNUsp/kiuJTrk6mlnrg+IFAe6wltk1R9MuYE0+yxO8oeUX
gQMMTfTviBNH0qKPKf0HvTsYQL6lvYqUuKYXhm7etAVFa0j7+I2M+/CHU8qjTXxM
ZD5unbUyYukCAwEAAaN7MHkwCQYDVR0TBAIwADAsBglghkgBhvhCAQ0EHxYdT3Bl
blNTTCBHZW5lcmF0ZWQgQ2VydGlmaWNhdGUwHQYDVR0OBBYEFPRxramLtbvx3Mlu
IytjtuKCeE19MB8GA1UdIwQYMBaAFIODlTWihL0WArBElOh4Kw3DltU0MA0GCSqG
SIb3DQEBCwUAA4IBAQCagjQmk7avpmfPIdhz7lRjs52i7nqNaMFzhW/nLH8BnFgH
iW4074oS8ciAy9SonPuPiEffwnOJAye2iVL2X81GQGsQSfhN+OVjRM3/IkcOSRoe
RX2GqxjjA4eXNG9R0qNNa3eoIlHsUvvEaKVwycENqQcV5PHnmFCdnrfzGhfjY8P3
kbb9h/g5Bpa+8bZntet2EheYV2bvxZdo7PlAszU7C/63YkIvjMHZO76/8gRkNpvf
0XleCIvEtH1aS1EGivHwdtLSaYwSx30MqAUzAJfPpoaIH18nLr2vWAuMhUldFbL2
40h2vsCXDr2BqTAIKjGhSxdSccSmI7PHFnv9/vu7
-----END CERTIFICATE-----
