Certificate:
    Data:
        Version: 3 (0x2)
        Serial Number: 305419896 (0x12345678)
        Signature Algorithm: sha256WithRSAEncryption
        Issuer: CN=CA1_sha256_2048_65537_v3_ca
        Validity
            Not Before: Apr 27 09:23:40 2023 GMT
            Not After : Apr 22 09:23:40 2043 GMT
        Subject: CN=SRK1_sha256_2048_65537_v3_ca
        Subject Public Key Info:
            Public Key Algorithm: rsaEncryption
                Public-Key: (2048 bit)
                Modulus:
                    00:ad:2c:77:0d:3c:9c:42:1a:35:df:e5:84:d0:b8:
                    28:9f:2c:57:12:94:86:6a:c6:f5:ea:1f:07:7b:36:
                    55:65:c1:a7:cb:a2:13:2b:7f:4d:04:a6:1e:4a:99:
                    0e:5b:c2:c1:95:6d:99:d2:6f:53:b6:1c:a0:a2:a8:
                    06:dc:45:63:30:e9:29:90:96:1b:76:a6:68:51:2b:
                    7e:37:84:b7:e4:b0:9a:c2:ca:c2:5b:94:5c:84:bd:
                    72:80:5b:84:f0:60:6e:d3:0d:21:d0:fb:1b:cd:e7:
                    4e:b3:4e:f3:78:e0:35:5b:43:a8:79:04:4a:d6:13:
                    85:cd:b2:08:4a:59:db:21:c7:7b:ff:f0:84:d5:98:
                    50:e9:65:99:a0:9d:a4:f7:84:11:81:30:03:0b:e1:
                    04:fa:47:dc:c1:a3:5d:d9:2e:82:76:2f:3a:2e:ab:
                    88:90:27:d7:31:2e:76:a4:c2:0f:fa:21:e0:61:db:
                    88:6b:3c:57:62:2a:aa:5f:4c:fd:24:f3:a6:30:a9:
                    c1:63:a3:b9:d1:65:76:c1:88:1e:95:c5:44:1f:c4:
                    74:18:66:c5:0e:3c:19:31:c0:96:f0:31:24:e6:4c:
                    a1:b5:9d:3a:e0:33:0b:a7:76:34:e0:fa:c9:5a:51:
                    0e:d3:0f:72:e7:a6:3f:36:96:23:22:97:ec:b7:f9:
                    0f:31
                Exponent: 65537 (0x10001)
        X509v3 extensions:
            X509v3 Subject Key Identifier: 
                83:83:95:35:A2:84:BD:16:02:B0:44:94:E8:78:2B:0D:C3:96:D5:34
            X509v3 Authority Key Identifier: 
                keyid:AB:9F:E8:79:EF:A5:BC:D2:C9:AB:C2:04:45:61:2A:D2:40:73:3A:E4
                DirName:/CN=CA1_sha256_2048_65537_v3_ca
                serial:75:AB:D9:2F:1E:13:35:F7:A7:A7:4D:07:25:91:C2:01:69:C1:CF:8A
            X509v3 Basic Constraints: critical
                CA:TRUE
            X509v3 Key Usage: 
                Certificate Sign
    Signature Algorithm: sha256WithRSAEncryption
    Signature Value:
        51:79:94:60:bd:89:69:9d:39:41:81:7d:c5:a1:fe:bd:45:8e:
        47:5c:5e:2d:07:b2:f2:a0:0b:26:b6:c8:ac:c2:46:97:43:e7:
        7a:bd:59:0b:b0:fd:92:ee:64:a7:1a:23:fe:ec:90:51:a0:c4:
        a4:58:86:9f:a1:2c:06:a7:99:0c:79:ff:52:0e:5f:76:90:ad:
        92:a2:50:6f:16:88:25:33:cf:77:f4:8e:62:0e:04:52:5c:06:
        0f:ef:28:d0:74:11:5d:cb:7b:db:81:dd:4a:b2:ec:cb:ec:c6:
        af:20:88:ca:1d:9e:26:64:47:57:4e:20:ea:4c:d6:d5:44:7f:
        9d:85:66:3c:40:3e:76:2a:1f:1f:44:c0:d7:47:10:70:6b:b8:
        a7:7a:c3:40:2f:49:a8:b2:33:3e:b2:2c:7a:f3:49:b6:d8:d6:
        f1:ef:0f:ca:c3:a3:e7:97:ea:44:bb:99:15:76:3f:fa:d5:32:
        d0:65:1a:69:b4:ff:cf:36:31:e7:6a:73:26:c9:f2:1c:98:5e:
        d3:7f:cf:1b:9a:4a:fb:21:73:43:38:86:63:79:b8:3f:58:9e:
        ba:62:38:5c:62:b4:67:90:6c:3e:c9:8c:54:91:95:3b:0d:79:
        0e:b4:3e:50:a8:41:88:a8:1e:7c:84:e5:fc:41:bd:ef:f8:00:
        a9:fb:bc:1a
-----BEGIN CERTIFICATE-----
MIIDbzCCAlegAwIBAgIEEjRWeDANBgkqhkiG9w0BAQsFADAmMSQwIgYDVQQDFBtD
QTFfc2hhMjU2XzIwNDhfNjU1MzdfdjNfY2EwHhcNMjMwNDI3MDkyMzQwWhcNNDMw
NDIyMDkyMzQwWjAnMSUwIwYDVQQDDBxTUksxX3NoYTI1Nl8yMDQ4XzY1NTM3X3Yz
X2NhMIIBIjANBgkqhkiG9w0BAQEFAAOCAQ8AMIIBCgKCAQEArSx3DTycQho13+WE
0LgonyxXEpSGasb16h8HezZVZcGny6ITK39NBKYeSpkOW8LBlW2Z0m9TthygoqgG
3EVjMOkpkJYbdqZoUSt+N4S35LCawsrCW5RchL1ygFuE8GBu0w0h0PsbzedOs07z
eOA1W0OoeQRK1hOFzbIISlnbIcd7//CE1ZhQ6WWZoJ2k94QRgTADC+EE+kfcwaNd
2S6Cdi86LquIkCfXMS52pMIP+iHgYduIazxXYiqqX0z9JPOmMKnBY6O50WV2wYge
lcVEH8R0GGbFDjwZMcCW8DEk5kyhtZ064DMLp3Y04PrJWlEO0w9y56Y/NpYjIpfs
t/kPMQIDAQABo4GjMIGgMB0GA1UdDgQWBBSDg5U1ooS9FgKwRJToeCsNw5bVNDBh
BgNVHSMEWjBYgBSrn+h576W80smrwgRFYSrSQHM65KEqpCgwJjEkMCIGA1UEAxQb
Q0ExX3NoYTI1Nl8yMDQ4XzY1NTM3X3YzX2NhghR1q9kvHhM196enTQclkcIBacHP
ijAPBgNVHRMBAf8EBTADAQH/MAsGA1UdDwQEAwICBDANBgkqhkiG9w0BAQsFAAOC
AQEAUXmUYL2JaZ05QYF9xaH+vUWOR1xeLQey8qALJrbIrMJGl0Pner1ZC7D9ku5k
pxoj/uyQUaDEpFiGn6EsBqeZDHn/Ug5fdpCtkqJQbxaIJTPPd/SOYg4EUlwGD+8o
0HQRXct724HdSrLsy+zGryCIyh2eJmRHV04g6kzW1UR/nYVmPEA+diofH0TA10cQ
cGu4p3rDQC9JqLIzPrIsevNJttjW8e8PysOj55fqRLuZFXY/+tUy0GUaabT/zzYx
52pzJsnyHJhe03/PG5pK+yFzQziGY3m4P1ieumI4XGK0Z5BsPsmMVJGVOw15DrQ+
UKhBiKgefITl/EG97/gAqfu8Gg==
-----END CERTIFICATE-----
